; ModuleID = '24/377.c'
source_filename = "24/377.c"
target datalayout = "e-m:e-p270:32:32-p271:32:32-p272:64:64-i64:64-f80:128-n8:16:32:64-S128"
target triple = "x86_64-pc-linux-gnu"

@.str = private unnamed_addr constant [4 x i8] c"%s\0A\00", align 1

; Function Attrs: noinline nounwind uwtable
define dso_local void @main() #0 {
  %1 = alloca [5000 x i8], align 16
  %2 = alloca [50 x [100 x i8]], align 16
  %3 = alloca [50 x i32], align 16
  %4 = alloca i32, align 4
  %5 = alloca i32, align 4
  %6 = alloca i32, align 4
  %7 = alloca i32, align 4
  %8 = alloca i32, align 4
  %9 = alloca i32, align 4
  %10 = alloca i32, align 4
  %11 = bitcast [5000 x i8]* %1 to i8*
  call void @llvm.memset.p0i8.i64(i8* align 16 %11, i8 0, i64 5000, i1 false)
  %12 = bitcast [50 x i32]* %3 to i8*
  call void @llvm.memset.p0i8.i64(i8* align 16 %12, i8 0, i64 200, i1 false)
  store i32 0, i32* %6, align 4
  store i32 0, i32* %8, align 4
  store i32 0, i32* %9, align 4
  store i32 0, i32* %10, align 4
  %13 = getelementptr inbounds [5000 x i8], [5000 x i8]* %1, i64 0, i64 0
  %14 = call i32 (i8*, ...) bitcast (i32 (...)* @gets to i32 (i8*, ...)*)(i8* %13)
  store i32 0, i32* %4, align 4
  br label %15

15:                                               ; preds = %74, %0
  %16 = load i32, i32* %4, align 4
  %17 = sext i32 %16 to i64
  %18 = getelementptr inbounds [5000 x i8], [5000 x i8]* %1, i64 0, i64 0
  %19 = call i64 @strlen(i8* %18) #4
  %20 = icmp ult i64 %17, %19
  br i1 %20, label %21, label %88

21:                                               ; preds = %15
  store i32 0, i32* %5, align 4
  br label %22

22:                                               ; preds = %71, %21
  %23 = load i32, i32* %5, align 4
  %24 = load i32, i32* %10, align 4
  %25 = add nsw i32 %23, %24
  %26 = load i32, i32* %6, align 4
  %27 = add nsw i32 %25, %26
  %28 = sext i32 %27 to i64
  %29 = getelementptr inbounds [5000 x i8], [5000 x i8]* %1, i64 0, i64 %28
  %30 = load i8, i8* %29, align 1
  %31 = sext i8 %30 to i32
  %32 = icmp ne i32 %31, 32
  br i1 %32, label %33, label %44

33:                                               ; preds = %22
  %34 = load i32, i32* %5, align 4
  %35 = load i32, i32* %10, align 4
  %36 = add nsw i32 %34, %35
  %37 = load i32, i32* %6, align 4
  %38 = add nsw i32 %36, %37
  %39 = sext i32 %38 to i64
  %40 = getelementptr inbounds [5000 x i8], [5000 x i8]* %1, i64 0, i64 %39
  %41 = load i8, i8* %40, align 1
  %42 = sext i8 %41 to i32
  %43 = icmp ne i32 %42, 0
  br label %44

44:                                               ; preds = %33, %22
  %45 = phi i1 [ false, %22 ], [ %43, %33 ]
  br i1 %45, label %46, label %74

46:                                               ; preds = %44
  %47 = load i32, i32* %6, align 4
  %48 = sext i32 %47 to i64
  %49 = getelementptr inbounds [50 x i32], [50 x i32]* %3, i64 0, i64 %48
  %50 = load i32, i32* %49, align 4
  %51 = add nsw i32 %50, 1
  %52 = load i32, i32* %6, align 4
  %53 = sext i32 %52 to i64
  %54 = getelementptr inbounds [50 x i32], [50 x i32]* %3, i64 0, i64 %53
  store i32 %51, i32* %54, align 4
  %55 = load i32, i32* %5, align 4
  %56 = load i32, i32* %10, align 4
  %57 = add nsw i32 %55, %56
  %58 = load i32, i32* %6, align 4
  %59 = add nsw i32 %57, %58
  %60 = sext i32 %59 to i64
  %61 = getelementptr inbounds [5000 x i8], [5000 x i8]* %1, i64 0, i64 %60
  %62 = load i8, i8* %61, align 1
  %63 = load i32, i32* %6, align 4
  %64 = sext i32 %63 to i64
  %65 = getelementptr inbounds [50 x [100 x i8]], [50 x [100 x i8]]* %2, i64 0, i64 %64
  %66 = load i32, i32* %5, align 4
  %67 = sext i32 %66 to i64
  %68 = getelementptr inbounds [100 x i8], [100 x i8]* %65, i64 0, i64 %67
  store i8 %62, i8* %68, align 1
  %69 = load i32, i32* %4, align 4
  %70 = add nsw i32 %69, 1
  store i32 %70, i32* %4, align 4
  br label %71

71:                                               ; preds = %46
  %72 = load i32, i32* %5, align 4
  %73 = add nsw i32 %72, 1
  store i32 %73, i32* %5, align 4
  br label %22

74:                                               ; preds = %44
  %75 = load i32, i32* %6, align 4
  %76 = sext i32 %75 to i64
  %77 = getelementptr inbounds [50 x [100 x i8]], [50 x [100 x i8]]* %2, i64 0, i64 %76
  %78 = load i32, i32* %5, align 4
  %79 = sext i32 %78 to i64
  %80 = getelementptr inbounds [100 x i8], [100 x i8]* %77, i64 0, i64 %79
  store i8 0, i8* %80, align 1
  %81 = load i32, i32* %6, align 4
  %82 = add nsw i32 %81, 1
  store i32 %82, i32* %6, align 4
  %83 = load i32, i32* %4, align 4
  %84 = add nsw i32 %83, 1
  store i32 %84, i32* %4, align 4
  %85 = load i32, i32* %5, align 4
  %86 = load i32, i32* %10, align 4
  %87 = add nsw i32 %85, %86
  store i32 %87, i32* %10, align 4
  br label %15

88:                                               ; preds = %15
  %89 = getelementptr inbounds [50 x i32], [50 x i32]* %3, i64 0, i64 0
  %90 = load i32, i32* %89, align 16
  store i32 %90, i32* %8, align 4
  %91 = getelementptr inbounds [50 x i32], [50 x i32]* %3, i64 0, i64 0
  %92 = load i32, i32* %91, align 16
  store i32 %92, i32* %9, align 4
  store i32 1, i32* %7, align 4
  br label %93

93:                                               ; preds = %110, %88
  %94 = load i32, i32* %7, align 4
  %95 = load i32, i32* %6, align 4
  %96 = icmp slt i32 %94, %95
  br i1 %96, label %97, label %113

97:                                               ; preds = %93
  %98 = load i32, i32* %7, align 4
  %99 = sext i32 %98 to i64
  %100 = getelementptr inbounds [50 x i32], [50 x i32]* %3, i64 0, i64 %99
  %101 = load i32, i32* %100, align 4
  %102 = load i32, i32* %8, align 4
  %103 = icmp sgt i32 %101, %102
  br i1 %103, label %104, label %109

104:                                              ; preds = %97
  %105 = load i32, i32* %7, align 4
  %106 = sext i32 %105 to i64
  %107 = getelementptr inbounds [50 x i32], [50 x i32]* %3, i64 0, i64 %106
  %108 = load i32, i32* %107, align 4
  store i32 %108, i32* %8, align 4
  br label %109

109:                                              ; preds = %104, %97
  br label %110

110:                                              ; preds = %109
  %111 = load i32, i32* %7, align 4
  %112 = add nsw i32 %111, 1
  store i32 %112, i32* %7, align 4
  br label %93

113:                                              ; preds = %93
  store i32 1, i32* %7, align 4
  br label %114

114:                                              ; preds = %131, %113
  %115 = load i32, i32* %7, align 4
  %116 = load i32, i32* %6, align 4
  %117 = icmp slt i32 %115, %116
  br i1 %117, label %118, label %134

118:                                              ; preds = %114
  %119 = load i32, i32* %7, align 4
  %120 = sext i32 %119 to i64
  %121 = getelementptr inbounds [50 x i32], [50 x i32]* %3, i64 0, i64 %120
  %122 = load i32, i32* %121, align 4
  %123 = load i32, i32* %9, align 4
  %124 = icmp slt i32 %122, %123
  br i1 %124, label %125, label %130

125:                                              ; preds = %118
  %126 = load i32, i32* %7, align 4
  %127 = sext i32 %126 to i64
  %128 = getelementptr inbounds [50 x i32], [50 x i32]* %3, i64 0, i64 %127
  %129 = load i32, i32* %128, align 4
  store i32 %129, i32* %9, align 4
  br label %130

130:                                              ; preds = %125, %118
  br label %131

131:                                              ; preds = %130
  %132 = load i32, i32* %7, align 4
  %133 = add nsw i32 %132, 1
  store i32 %133, i32* %7, align 4
  br label %114

134:                                              ; preds = %114
  store i32 0, i32* %7, align 4
  br label %135

135:                                              ; preds = %153, %134
  %136 = load i32, i32* %7, align 4
  %137 = load i32, i32* %6, align 4
  %138 = icmp slt i32 %136, %137
  br i1 %138, label %139, label %156

139:                                              ; preds = %135
  %140 = load i32, i32* %8, align 4
  %141 = load i32, i32* %7, align 4
  %142 = sext i32 %141 to i64
  %143 = getelementptr inbounds [50 x i32], [50 x i32]* %3, i64 0, i64 %142
  %144 = load i32, i32* %143, align 4
  %145 = icmp eq i32 %140, %144
  br i1 %145, label %146, label %152

146:                                              ; preds = %139
  %147 = load i32, i32* %7, align 4
  %148 = sext i32 %147 to i64
  %149 = getelementptr inbounds [50 x [100 x i8]], [50 x [100 x i8]]* %2, i64 0, i64 %148
  %150 = getelementptr inbounds [100 x i8], [100 x i8]* %149, i64 0, i64 0
  %151 = call i32 (i8*, ...) @printf(i8* getelementptr inbounds ([4 x i8], [4 x i8]* @.str, i64 0, i64 0), i8* %150)
  br label %156

152:                                              ; preds = %139
  br label %153

153:                                              ; preds = %152
  %154 = load i32, i32* %7, align 4
  %155 = add nsw i32 %154, 1
  store i32 %155, i32* %7, align 4
  br label %135

156:                                              ; preds = %146, %135
  store i32 0, i32* %7, align 4
  br label %157

157:                                              ; preds = %175, %156
  %158 = load i32, i32* %7, align 4
  %159 = load i32, i32* %6, align 4
  %160 = icmp slt i32 %158, %159
  br i1 %160, label %161, label %178

161:                                              ; preds = %157
  %162 = load i32, i32* %9, align 4
  %163 = load i32, i32* %7, align 4
  %164 = sext i32 %163 to i64
  %165 = getelementptr inbounds [50 x i32], [50 x i32]* %3, i64 0, i64 %164
  %166 = load i32, i32* %165, align 4
  %167 = icmp eq i32 %162, %166
  br i1 %167, label %168, label %174

168:                                              ; preds = %161
  %169 = load i32, i32* %7, align 4
  %170 = sext i32 %169 to i64
  %171 = getelementptr inbounds [50 x [100 x i8]], [50 x [100 x i8]]* %2, i64 0, i64 %170
  %172 = getelementptr inbounds [100 x i8], [100 x i8]* %171, i64 0, i64 0
  %173 = call i32 (i8*, ...) @printf(i8* getelementptr inbounds ([4 x i8], [4 x i8]* @.str, i64 0, i64 0), i8* %172)
  br label %178

174:                                              ; preds = %161
  br label %175

175:                                              ; preds = %174
  %176 = load i32, i32* %7, align 4
  %177 = add nsw i32 %176, 1
  store i32 %177, i32* %7, align 4
  br label %157

178:                                              ; preds = %168, %157
  ret void
}

; Function Attrs: argmemonly nounwind willreturn
declare void @llvm.memset.p0i8.i64(i8* nocapture writeonly, i8, i64, i1 immarg) #1

declare dso_local i32 @gets(...) #2

; Function Attrs: nounwind readonly
declare dso_local i64 @strlen(i8*) #3

declare dso_local i32 @printf(i8*, ...) #2


!llvm.module.flags = !{!0}
!llvm.ident = !{!1}

!0 = !{i32 1, !"wchar_size", i32 4}
!1 = !{!"clang version 10.0.0-4ubuntu1 "}
